target datalayout = "e-m:e-p270:32:32-p271:32:32-p272:64:64-i64:64-i128:128-f80:128-n8:16:32:64-S128"
target triple = "x86_64-pc-linux-gnu"

%struct.Node = type { i32 }
%struct.ErrorSaveContext = type { i32, i8, i8, ptr }
%struct.JsonLexContext = type { ptr, i64, i32, ptr, ptr, ptr, i8, i32, i32, i32, i32, ptr, ptr, ptr, i8, ptr, ptr }
%struct.JsValue = type { i8, %union.anon.6 }
%union.anon.6 = type { %struct.anon.7 }
%struct.anon.7 = type { ptr, i32, i32 }
%struct.ArrayIOData = type { ptr, i32, i32 }
%struct.PopulateArrayContext = type { ptr, ptr, ptr, ptr, ptr, ptr, ptr, i32, ptr }
%struct.PopulateArrayState = type { ptr, ptr, ptr, ptr, i32 }

; Function Attrs: inlinehint nounwind uwtable
define internal i64 @PointerGetDatum(ptr noundef %0) #3 {
  %2 = alloca ptr, align 8
  store ptr %0, ptr %2, align 8
  %3 = load ptr, ptr %2, align 8
  %4 = ptrtoint ptr %3 to i64
  ret i64 %4
}

; Function Attrs: nounwind uwtable
define internal zeroext i1 @populate_array_element(ptr noundef %0, i32 noundef %1, ptr noundef %2) #0 {
  %4 = alloca i1, align 1
  %5 = alloca ptr, align 8
  %6 = alloca i32, align 4
  %7 = alloca ptr, align 8
  %8 = alloca i64, align 8
  %9 = alloca i8, align 1
  %10 = alloca i32, align 4
  store ptr %0, ptr %5, align 8
  store i32 %1, ptr %6, align 4
  store ptr %2, ptr %7, align 8
  call void @llvm.lifetime.start.p0(i64 8, ptr %8) #10
  call void @llvm.lifetime.start.p0(i64 1, ptr %9) #10
  %11 = load ptr, ptr %5, align 8
  %12 = getelementptr inbounds nuw %struct.PopulateArrayContext, ptr %11, i32 0, i32 1
  %13 = load ptr, ptr %12, align 8
  %14 = getelementptr inbounds nuw %struct.ArrayIOData, ptr %13, i32 0, i32 0
  %15 = load ptr, ptr %14, align 8
  %16 = load ptr, ptr %5, align 8
  %17 = getelementptr inbounds nuw %struct.PopulateArrayContext, ptr %16, i32 0, i32 1
  %18 = load ptr, ptr %17, align 8
  %19 = getelementptr inbounds nuw %struct.ArrayIOData, ptr %18, i32 0, i32 1
  %20 = load i32, ptr %19, align 8
  %21 = load ptr, ptr %5, align 8
  %22 = getelementptr inbounds nuw %struct.PopulateArrayContext, ptr %21, i32 0, i32 1
  %23 = load ptr, ptr %22, align 8
  %24 = getelementptr inbounds nuw %struct.ArrayIOData, ptr %23, i32 0, i32 2
  %25 = load i32, ptr %24, align 4
  %26 = load ptr, ptr %5, align 8
  %27 = getelementptr inbounds nuw %struct.PopulateArrayContext, ptr %26, i32 0, i32 3
  %28 = load ptr, ptr %27, align 8
  %29 = call i64 @PointerGetDatum(ptr noundef null)
  %30 = load ptr, ptr %7, align 8
  %31 = load ptr, ptr %5, align 8
  %32 = getelementptr inbounds nuw %struct.PopulateArrayContext, ptr %31, i32 0, i32 8
  %33 = load ptr, ptr %32, align 8
  %34 = call i64 @populate_record_field(ptr noundef %15, i32 noundef %20, i32 noundef %25, ptr noundef null, ptr noundef %28, i64 noundef %29, ptr noundef %30, ptr noundef %9, ptr noundef %33, i1 noundef zeroext false)
  store i64 %34, ptr %8, align 8
  %35 = load ptr, ptr %5, align 8
  %36 = getelementptr inbounds nuw %struct.PopulateArrayContext, ptr %35, i32 0, i32 8
  %37 = load ptr, ptr %36, align 8
  %38 = icmp ne ptr %37, null
  br i1 %38, label %39, label %54

39:                                               ; preds = %3
  %40 = load ptr, ptr %5, align 8
  %41 = getelementptr inbounds nuw %struct.PopulateArrayContext, ptr %40, i32 0, i32 8
  %42 = load ptr, ptr %41, align 8
  %43 = getelementptr inbounds nuw %struct.Node, ptr %42, i32 0, i32 0
  %44 = load i32, ptr %43, align 4
  %45 = icmp eq i32 %44, 446
  br i1 %45, label %46, label %54

46:                                               ; preds = %39
  %47 = load ptr, ptr %5, align 8
  %48 = getelementptr inbounds nuw %struct.PopulateArrayContext, ptr %47, i32 0, i32 8
  %49 = load ptr, ptr %48, align 8
  %50 = getelementptr inbounds nuw %struct.ErrorSaveContext, ptr %49, i32 0, i32 1
  %51 = load i8, ptr %50, align 4, !range !4, !noundef !5
  %52 = trunc i8 %51 to i1
  br i1 %52, label %53, label %54

53:                                               ; preds = %46
  store i1 false, ptr %4, align 1
  store i32 1, ptr %10, align 4
  br label %79

54:                                               ; preds = %46, %39, %3
  %55 = load ptr, ptr %5, align 8
  %56 = getelementptr inbounds nuw %struct.PopulateArrayContext, ptr %55, i32 0, i32 0
  %57 = load ptr, ptr %56, align 8
  %58 = load i64, ptr %8, align 8
  %59 = load i8, ptr %9, align 1, !range !4, !noundef !5
  %60 = trunc i8 %59 to i1
  %61 = load ptr, ptr %5, align 8
  %62 = getelementptr inbounds nuw %struct.PopulateArrayContext, ptr %61, i32 0, i32 1
  %63 = load ptr, ptr %62, align 8
  %64 = getelementptr inbounds nuw %struct.ArrayIOData, ptr %63, i32 0, i32 1
  %65 = load i32, ptr %64, align 8
  %66 = load ptr, ptr %5, align 8
  %67 = getelementptr inbounds nuw %struct.PopulateArrayContext, ptr %66, i32 0, i32 2
  %68 = load ptr, ptr %67, align 8
  %69 = call ptr @accumArrayResult(ptr noundef %57, i64 noundef %58, i1 noundef zeroext %60, i32 noundef %65, ptr noundef %68)
  %70 = load ptr, ptr %5, align 8
  %71 = getelementptr inbounds nuw %struct.PopulateArrayContext, ptr %70, i32 0, i32 6
  %72 = load ptr, ptr %71, align 8
  %73 = load i32, ptr %6, align 4
  %74 = sub i32 %73, 1
  %75 = sext i32 %74 to i64
  %76 = getelementptr inbounds i32, ptr %72, i64 %75
  %77 = load i32, ptr %76, align 4
  %78 = add i32 %77, 1
  store i32 %78, ptr %76, align 4
  store i1 true, ptr %4, align 1
  store i32 1, ptr %10, align 4
  br label %79

79:                                               ; preds = %54, %53
  call void @llvm.lifetime.end.p0(i64 1, ptr %9) #10
  call void @llvm.lifetime.end.p0(i64 8, ptr %8) #10
  %80 = load i1, ptr %4, align 1
  ret i1 %80
}

; Function Attrs: nounwind uwtable
define internal i32 @populate_array_element_end(ptr noundef %0, i1 noundef zeroext %1) #0 {
  %3 = alloca i32, align 4
  %4 = alloca ptr, align 8
  %5 = alloca i8, align 1
  %6 = alloca ptr, align 8
  %7 = alloca ptr, align 8
  %8 = alloca i32, align 4
  %9 = alloca %struct.JsValue, align 8
  %10 = alloca i32, align 4
  store ptr %0, ptr %4, align 8
  %11 = zext i1 %1 to i8
  store i8 %11, ptr %5, align 1
  call void @llvm.lifetime.start.p0(i64 8, ptr %6) #10
  %12 = load ptr, ptr %4, align 8
  store ptr %12, ptr %6, align 8
  call void @llvm.lifetime.start.p0(i64 8, ptr %7) #10
  %13 = load ptr, ptr %6, align 8
  %14 = getelementptr inbounds nuw %struct.PopulateArrayState, ptr %13, i32 0, i32 1
  %15 = load ptr, ptr %14, align 8
  store ptr %15, ptr %7, align 8
  call void @llvm.lifetime.start.p0(i64 4, ptr %8) #10
  %16 = load ptr, ptr %6, align 8
  %17 = getelementptr inbounds nuw %struct.PopulateArrayState, ptr %16, i32 0, i32 0
  %18 = load ptr, ptr %17, align 8
  %19 = getelementptr inbounds nuw %struct.JsonLexContext, ptr %18, i32 0, i32 8
  %20 = load i32, ptr %19, align 8
  store i32 %20, ptr %8, align 4
  %21 = load i32, ptr %8, align 4
  %22 = load ptr, ptr %7, align 8
  %23 = getelementptr inbounds nuw %struct.PopulateArrayContext, ptr %22, i32 0, i32 7
  %24 = load i32, ptr %23, align 8
  %25 = icmp eq i32 %21, %24
  br i1 %25, label %26, label %84

26:                                               ; preds = %2
  call void @llvm.lifetime.start.p0(i64 24, ptr %9) #10
  %27 = getelementptr inbounds nuw %struct.JsValue, ptr %9, i32 0, i32 0
  store i8 1, ptr %27, align 8
  %28 = load ptr, ptr %6, align 8
  %29 = getelementptr inbounds nuw %struct.PopulateArrayState, ptr %28, i32 0, i32 4
  %30 = load i32, ptr %29, align 8
  %31 = getelementptr inbounds nuw %struct.JsValue, ptr %9, i32 0, i32 1
  %32 = getelementptr inbounds nuw %struct.anon.7, ptr %31, i32 0, i32 2
  store i32 %30, ptr %32, align 4
  %33 = load i8, ptr %5, align 1, !range !4, !noundef !5
  %34 = trunc i8 %33 to i1
  br i1 %34, label %35, label %40

35:                                               ; preds = %26
  %36 = getelementptr inbounds nuw %struct.JsValue, ptr %9, i32 0, i32 1
  %37 = getelementptr inbounds nuw %struct.anon.7, ptr %36, i32 0, i32 0
  store ptr null, ptr %37, align 8
  %38 = getelementptr inbounds nuw %struct.JsValue, ptr %9, i32 0, i32 1
  %39 = getelementptr inbounds nuw %struct.anon.7, ptr %38, i32 0, i32 1
  store i32 0, ptr %39, align 8
  br label %75

40:                                               ; preds = %26
  %41 = load ptr, ptr %6, align 8
  %42 = getelementptr inbounds nuw %struct.PopulateArrayState, ptr %41, i32 0, i32 3
  %43 = load ptr, ptr %42, align 8
  %44 = icmp ne ptr %43, null
  br i1 %44, label %45, label %53

45:                                               ; preds = %40
  %46 = load ptr, ptr %6, align 8
  %47 = getelementptr inbounds nuw %struct.PopulateArrayState, ptr %46, i32 0, i32 3
  %48 = load ptr, ptr %47, align 8
  %49 = getelementptr inbounds nuw %struct.JsValue, ptr %9, i32 0, i32 1
  %50 = getelementptr inbounds nuw %struct.anon.7, ptr %49, i32 0, i32 0
  store ptr %48, ptr %50, align 8
  %51 = getelementptr inbounds nuw %struct.JsValue, ptr %9, i32 0, i32 1
  %52 = getelementptr inbounds nuw %struct.anon.7, ptr %51, i32 0, i32 1
  store i32 -1, ptr %52, align 8
  br label %74

53:                                               ; preds = %40
  %54 = load ptr, ptr %6, align 8
  %55 = getelementptr inbounds nuw %struct.PopulateArrayState, ptr %54, i32 0, i32 2
  %56 = load ptr, ptr %55, align 8
  %57 = getelementptr inbounds nuw %struct.JsValue, ptr %9, i32 0, i32 1
  %58 = getelementptr inbounds nuw %struct.anon.7, ptr %57, i32 0, i32 0
  store ptr %56, ptr %58, align 8
  %59 = load ptr, ptr %6, align 8
  %60 = getelementptr inbounds nuw %struct.PopulateArrayState, ptr %59, i32 0, i32 0
  %61 = load ptr, ptr %60, align 8
  %62 = getelementptr inbounds nuw %struct.JsonLexContext, ptr %61, i32 0, i32 5
  %63 = load ptr, ptr %62, align 8
  %64 = load ptr, ptr %6, align 8
  %65 = getelementptr inbounds nuw %struct.PopulateArrayState, ptr %64, i32 0, i32 2
  %66 = load ptr, ptr %65, align 8
  %67 = ptrtoint ptr %63 to i64
  %68 = ptrtoint ptr %66 to i64
  %69 = sub i64 %67, %68
  %70 = mul i64 %69, 1
  %71 = trunc i64 %70 to i32
  %72 = getelementptr inbounds nuw %struct.JsValue, ptr %9, i32 0, i32 1
  %73 = getelementptr inbounds nuw %struct.anon.7, ptr %72, i32 0, i32 1
  store i32 %71, ptr %73, align 8
  br label %74

74:                                               ; preds = %53, %45
  br label %75

75:                                               ; preds = %74, %35
  %76 = load ptr, ptr %7, align 8
  %77 = load i32, ptr %8, align 4
  %78 = call zeroext i1 @populate_array_element(ptr noundef %76, i32 noundef %77, ptr noundef %9)
  br i1 %78, label %80, label %79

79:                                               ; preds = %75
  store i32 23, ptr %3, align 4
  store i32 1, ptr %10, align 4
  br label %81

80:                                               ; preds = %75
  store i32 0, ptr %10, align 4
  br label %81

81:                                               ; preds = %80, %79
  call void @llvm.lifetime.end.p0(i64 24, ptr %9) #10
  %82 = load i32, ptr %10, align 4
  switch i32 %82, label %85 [
    i32 0, label %83
  ]

83:                                               ; preds = %81
  br label %84

84:                                               ; preds = %83, %2
  store i32 0, ptr %3, align 4
  store i32 1, ptr %10, align 4
  br label %85

85:                                               ; preds = %84, %81
  call void @llvm.lifetime.end.p0(i64 4, ptr %8) #10
  call void @llvm.lifetime.end.p0(i64 8, ptr %7) #10
  call void @llvm.lifetime.end.p0(i64 8, ptr %6) #10
  %86 = load i32, ptr %3, align 4
  ret i32 %86
}