; Function Attrs: nounwind uwtable
define internal range(i32 0, 24) i32 @populate_array_element_end(ptr noundef readonly captures(none) %0, i1 noundef zeroext %1) #0 {
  %3 = alloca i8, align 1
  %4 = alloca %struct.JsValue, align 8
  %5 = getelementptr inbounds nuw i8, ptr %0, i64 8
  %6 = load ptr, ptr %5, align 8
  %7 = load ptr, ptr %0, align 8
  %8 = getelementptr inbounds nuw i8, ptr %7, i64 56
  %9 = load i32, ptr %8, align 8
  %10 = getelementptr inbounds nuw i8, ptr %6, i64 56
  %11 = load i32, ptr %10, align 8
  %12 = icmp eq i32 %9, %11
  br i1 %12, label %13, label %70

13:                                               ; preds = %2
  call void @llvm.lifetime.start.p0(i64 24, ptr nonnull %4) #15
  store i8 1, ptr %4, align 8
  %14 = getelementptr inbounds nuw i8, ptr %0, i64 32
  %15 = load i32, ptr %14, align 8
  %16 = getelementptr inbounds nuw i8, ptr %4, i64 8
  %17 = getelementptr inbounds nuw i8, ptr %4, i64 20
  store i32 %15, ptr %17, align 4
  br i1 %1, label %18, label %19

18:                                               ; preds = %13
  store ptr null, ptr %16, align 8
  br label %32

19:                                               ; preds = %13
  %20 = getelementptr inbounds nuw i8, ptr %0, i64 24
  %21 = load ptr, ptr %20, align 8
  %.not = icmp eq ptr %21, null
  br i1 %.not, label %23, label %22

22:                                               ; preds = %19
  store ptr %21, ptr %16, align 8
  br label %32

23:                                               ; preds = %19
  %24 = getelementptr inbounds nuw i8, ptr %0, i64 16
  %25 = load ptr, ptr %24, align 8
  store ptr %25, ptr %16, align 8
  %26 = getelementptr inbounds nuw i8, ptr %7, i64 40
  %27 = load ptr, ptr %26, align 8
  %28 = ptrtoint ptr %27 to i64
  %29 = ptrtoint ptr %25 to i64
  %30 = sub i64 %28, %29
  %31 = trunc i64 %30 to i32
  br label %32

32:                                               ; preds = %22, %23, %18
  %.sink = phi i32 [ -1, %22 ], [ %31, %23 ], [ 0, %18 ]
  %33 = getelementptr inbounds nuw i8, ptr %4, i64 16
  store i32 %.sink, ptr %33, align 8
  call void @llvm.lifetime.start.p0(i64 1, ptr nonnull %3) #15
  %34 = getelementptr inbounds nuw i8, ptr %6, i64 8
  %35 = load ptr, ptr %34, align 8
  %36 = load ptr, ptr %35, align 8
  %37 = getelementptr inbounds nuw i8, ptr %35, i64 8
  %38 = load i32, ptr %37, align 8
  %39 = getelementptr inbounds nuw i8, ptr %35, i64 12
  %40 = load i32, ptr %39, align 4
  %41 = getelementptr inbounds nuw i8, ptr %6, i64 24
  %42 = load ptr, ptr %41, align 8
  %43 = getelementptr inbounds nuw i8, ptr %6, i64 64
  %44 = load ptr, ptr %43, align 8
  %45 = call fastcc i64 @populate_record_field(ptr noundef %36, i32 noundef %38, i32 noundef %40, ptr noundef null, ptr noundef %42, i64 noundef 0, ptr noundef nonnull readonly %4, ptr noundef nonnull %3, ptr noundef %44, i1 noundef zeroext false)
  %46 = load ptr, ptr %43, align 8
  %.not.i = icmp eq ptr %46, null
  br i1 %.not.i, label %populate_array_element.exit.thread, label %47

47:                                               ; preds = %32
  %48 = load i32, ptr %46, align 4
  %49 = icmp eq i32 %48, 446
  br i1 %49, label %50, label %populate_array_element.exit.thread

50:                                               ; preds = %47
  %51 = getelementptr inbounds nuw i8, ptr %46, i64 4
  %52 = load i8, ptr %51, align 4, !range !4, !noundef !5
  %53 = trunc nuw i8 %52 to i1
  br i1 %53, label %.sink.split, label %populate_array_element.exit.thread

populate_array_element.exit.thread:               ; preds = %32, %47, %50
  %54 = load ptr, ptr %6, align 8
  %55 = load i8, ptr %3, align 1, !range !4, !noundef !5
  %56 = trunc nuw i8 %55 to i1
  %57 = load ptr, ptr %34, align 8
  %58 = getelementptr inbounds nuw i8, ptr %57, i64 8
  %59 = load i32, ptr %58, align 8
  %60 = getelementptr inbounds nuw i8, ptr %6, i64 16
  %61 = load ptr, ptr %60, align 8
  %62 = tail call ptr @accumArrayResult(ptr noundef %54, i64 noundef %45, i1 noundef zeroext %56, i32 noundef %59, ptr noundef %61) #15
  %63 = getelementptr inbounds nuw i8, ptr %6, i64 48
  %64 = load ptr, ptr %63, align 8
  %65 = add i32 %9, -1
  %66 = sext i32 %65 to i64
  %67 = getelementptr inbounds i32, ptr %64, i64 %66
  %68 = load i32, ptr %67, align 4
  %69 = add i32 %68, 1
  store i32 %69, ptr %67, align 4
  br label %.sink.split

.sink.split:                                      ; preds = %50, %populate_array_element.exit.thread
  %.1.ph = phi i32 [ 0, %populate_array_element.exit.thread ], [ 23, %50 ]
  call void @llvm.lifetime.end.p0(i64 1, ptr nonnull %3) #15
  call void @llvm.lifetime.end.p0(i64 24, ptr nonnull %4) #15
  br label %70

70:                                               ; preds = %.sink.split, %2
  %.1 = phi i32 [ 0, %2 ], [ %.1.ph, %.sink.split ]
  ret i32 %.1
}